target datalayout = "e-m:e-p270:32:32-p271:32:32-p272:64:64-i64:64-i128:128-f80:128-n8:16:32:64-S128"
target triple = "x86_64-pc-linux-gnu"

%"struct.std::_Rb_tree_header" = type { %"struct.std::_Rb_tree_node_base", i64 }
%"struct.std::_Rb_tree_node_base" = type { i32, ptr, ptr, ptr }
%"class.std::_Rb_tree.349" = type { %"struct.std::_Rb_tree<ue2::(anonymous namespace)::AliasInEdge, ue2::(anonymous namespace)::AliasInEdge, std::_Identity<ue2::(anonymous namespace)::AliasInEdge>, std::less<ue2::(anonymous namespace)::AliasInEdge>>::_Rb_tree_impl" }
%"struct.std::_Rb_tree<ue2::(anonymous namespace)::AliasInEdge, ue2::(anonymous namespace)::AliasInEdge, std::_Identity<ue2::(anonymous namespace)::AliasInEdge>, std::less<ue2::(anonymous namespace)::AliasInEdge>>::_Rb_tree_impl" = type { [8 x i8], %"struct.std::_Rb_tree_header" }
%"struct.std::_Rb_tree_node.366" = type { %"struct.std::_Rb_tree_node_base", %"struct.__gnu_cxx::__aligned_membuf.367" }
%"struct.__gnu_cxx::__aligned_membuf.367" = type { [32 x i8] }

; Function Attrs: mustprogress nounwind uwtable
define internal noundef ptr @_ZN9__gnu_cxx16__aligned_membufIN3ue212_GLOBAL__N_111AliasInEdgeEE7_M_addrEv(ptr noundef nonnull align 8 dereferenceable(32) %0) #1 align 2 {
  %2 = alloca ptr, align 8
  store ptr %0, ptr %2, align 8
  %3 = load ptr, ptr %2, align 8
  %4 = getelementptr inbounds nuw %"struct.__gnu_cxx::__aligned_membuf.367", ptr %3, i32 0, i32 0
  ret ptr %4
}

; Function Attrs: mustprogress nounwind uwtable
define internal void @_ZNSt15__new_allocatorISt13_Rb_tree_nodeIN3ue212_GLOBAL__N_111AliasInEdgeEEE10deallocateEPS4_m(ptr noundef nonnull align 1 dereferenceable(1) %0, ptr noundef %1, i64 noundef %2) #1 align 2 {
  %4 = alloca ptr, align 8
  %5 = alloca ptr, align 8
  %6 = alloca i64, align 8
  store ptr %0, ptr %4, align 8
  store ptr %1, ptr %5, align 8
  store i64 %2, ptr %6, align 8
  %7 = load ptr, ptr %5, align 8
  call void @_ZdlPv(ptr noundef %7) #29
  ret void
}

; Function Attrs: mustprogress nounwind uwtable
define internal void @_ZNSt15__new_allocatorISt13_Rb_tree_nodeIN3ue212_GLOBAL__N_111AliasInEdgeEEE7destroyIS3_EEvPT_(ptr noundef nonnull align 1 dereferenceable(1) %0, ptr noundef %1) #1 align 2 {
  %3 = alloca ptr, align 8
  %4 = alloca ptr, align 8
  store ptr %0, ptr %3, align 8
  store ptr %1, ptr %4, align 8
  %5 = load ptr, ptr %4, align 8
  %6 = load ptr, ptr %5, align 8
  %7 = getelementptr inbounds ptr, ptr %6, i64 0
  %8 = load ptr, ptr %7, align 8
  call void %8(ptr noundef nonnull align 8 dereferenceable(32) %5) #24
  ret void
}

; Function Attrs: mustprogress nounwind uwtable
define internal noundef ptr @_ZN9__gnu_cxx16__aligned_membufIN3ue212_GLOBAL__N_111AliasInEdgeEE6_M_ptrEv(ptr noundef nonnull align 8 dereferenceable(32) %0) #1 align 2 {
  %2 = alloca ptr, align 8
  store ptr %0, ptr %2, align 8
  %3 = load ptr, ptr %2, align 8
  %4 = call noundef ptr @_ZN9__gnu_cxx16__aligned_membufIN3ue212_GLOBAL__N_111AliasInEdgeEE7_M_addrEv(ptr noundef nonnull align 8 dereferenceable(32) %3) #24
  ret ptr %4
}

; Function Attrs: noinline noreturn nounwind uwtable
define linkonce_odr hidden void @__clang_call_terminate(ptr noundef %0) #9 comdat {
  %2 = call ptr @__cxa_begin_catch(ptr %0) #24
  call void @_ZSt9terminatev() #25
  unreachable
}

; Function Attrs: mustprogress uwtable
define internal void @_ZNSt16allocator_traitsISaISt13_Rb_tree_nodeIN3ue212_GLOBAL__N_111AliasInEdgeEEEE10deallocateERS5_PS4_m(ptr noundef nonnull align 1 dereferenceable(1) %0, ptr noundef %1, i64 noundef %2) #3 align 2 {
  %4 = alloca ptr, align 8
  %5 = alloca ptr, align 8
  %6 = alloca i64, align 8
  store ptr %0, ptr %4, align 8
  store ptr %1, ptr %5, align 8
  store i64 %2, ptr %6, align 8
  %7 = load ptr, ptr %4, align 8
  %8 = load ptr, ptr %5, align 8
  %9 = load i64, ptr %6, align 8
  call void @_ZNSt15__new_allocatorISt13_Rb_tree_nodeIN3ue212_GLOBAL__N_111AliasInEdgeEEE10deallocateEPS4_m(ptr noundef nonnull align 1 dereferenceable(1) %7, ptr noundef %8, i64 noundef %9)
  ret void
}

; Function Attrs: mustprogress nounwind uwtable
define internal void @_ZNSt16allocator_traitsISaISt13_Rb_tree_nodeIN3ue212_GLOBAL__N_111AliasInEdgeEEEE7destroyIS3_EEvRS5_PT_(ptr noundef nonnull align 1 dereferenceable(1) %0, ptr noundef %1) #1 align 2 {
  %3 = alloca ptr, align 8
  %4 = alloca ptr, align 8
  store ptr %0, ptr %3, align 8
  store ptr %1, ptr %4, align 8
  %5 = load ptr, ptr %3, align 8
  %6 = load ptr, ptr %4, align 8
  call void @_ZNSt15__new_allocatorISt13_Rb_tree_nodeIN3ue212_GLOBAL__N_111AliasInEdgeEEE7destroyIS3_EEvPT_(ptr noundef nonnull align 1 dereferenceable(1) %5, ptr noundef %6) #24
  ret void
}

; Function Attrs: mustprogress nounwind uwtable
define internal noundef ptr @_ZNSt13_Rb_tree_nodeIN3ue212_GLOBAL__N_111AliasInEdgeEE9_M_valptrEv(ptr noundef nonnull align 8 dereferenceable(64) %0) #1 align 2 {
  %2 = alloca ptr, align 8
  store ptr %0, ptr %2, align 8
  %3 = load ptr, ptr %2, align 8
  %4 = getelementptr inbounds nuw %"struct.std::_Rb_tree_node.366", ptr %3, i32 0, i32 1
  %5 = call noundef ptr @_ZN9__gnu_cxx16__aligned_membufIN3ue212_GLOBAL__N_111AliasInEdgeEE6_M_ptrEv(ptr noundef nonnull align 8 dereferenceable(32) %4) #24
  ret ptr %5
}

; Function Attrs: mustprogress nounwind uwtable
define internal noundef nonnull align 1 dereferenceable(1) ptr @_ZNSt8_Rb_treeIN3ue212_GLOBAL__N_111AliasInEdgeES2_St9_IdentityIS2_ESt4lessIS2_ESaIS2_EE21_M_get_Node_allocatorEv(ptr noundef nonnull align 8 dereferenceable(48) %0) #1 align 2 {
  %2 = alloca ptr, align 8
  store ptr %0, ptr %2, align 8
  %3 = load ptr, ptr %2, align 8
  %4 = getelementptr inbounds nuw %"class.std::_Rb_tree.349", ptr %3, i32 0, i32 0
  ret ptr %4
}

; Function Attrs: mustprogress nounwind uwtable
define internal void @_ZNSt8_Rb_treeIN3ue212_GLOBAL__N_111AliasInEdgeES2_St9_IdentityIS2_ESt4lessIS2_ESaIS2_EE11_M_put_nodeEPSt13_Rb_tree_nodeIS2_E(ptr noundef nonnull align 8 dereferenceable(48) %0, ptr noundef %1) #1 align 2 personality ptr @__gxx_personality_v0 {
  %3 = alloca ptr, align 8
  %4 = alloca ptr, align 8
  store ptr %0, ptr %3, align 8
  store ptr %1, ptr %4, align 8
  %5 = load ptr, ptr %3, align 8
  %6 = call noundef nonnull align 1 dereferenceable(1) ptr @_ZNSt8_Rb_treeIN3ue212_GLOBAL__N_111AliasInEdgeES2_St9_IdentityIS2_ESt4lessIS2_ESaIS2_EE21_M_get_Node_allocatorEv(ptr noundef nonnull align 8 dereferenceable(48) %5) #24
  %7 = load ptr, ptr %4, align 8
  invoke void @_ZNSt16allocator_traitsISaISt13_Rb_tree_nodeIN3ue212_GLOBAL__N_111AliasInEdgeEEEE10deallocateERS5_PS4_m(ptr noundef nonnull align 1 dereferenceable(1) %6, ptr noundef %7, i64 noundef 1)
          to label %8 unwind label %9

8:                                                ; preds = %2
  ret void

9:                                                ; preds = %2
  %10 = landingpad { ptr, i32 }
          catch ptr null
  %11 = extractvalue { ptr, i32 } %10, 0
  call void @__clang_call_terminate(ptr %11) #25
  unreachable
}

; Function Attrs: mustprogress nounwind uwtable
define internal void @_ZNSt8_Rb_treeIN3ue212_GLOBAL__N_111AliasInEdgeES2_St9_IdentityIS2_ESt4lessIS2_ESaIS2_EE15_M_destroy_nodeEPSt13_Rb_tree_nodeIS2_E(ptr noundef nonnull align 8 dereferenceable(48) %0, ptr noundef %1) #1 align 2 {
  %3 = alloca ptr, align 8
  %4 = alloca ptr, align 8
  store ptr %0, ptr %3, align 8
  store ptr %1, ptr %4, align 8
  %5 = load ptr, ptr %3, align 8
  %6 = call noundef nonnull align 1 dereferenceable(1) ptr @_ZNSt8_Rb_treeIN3ue212_GLOBAL__N_111AliasInEdgeES2_St9_IdentityIS2_ESt4lessIS2_ESaIS2_EE21_M_get_Node_allocatorEv(ptr noundef nonnull align 8 dereferenceable(48) %5) #24
  %7 = load ptr, ptr %4, align 8
  %8 = call noundef ptr @_ZNSt13_Rb_tree_nodeIN3ue212_GLOBAL__N_111AliasInEdgeEE9_M_valptrEv(ptr noundef nonnull align 8 dereferenceable(64) %7)
  call void @_ZNSt16allocator_traitsISaISt13_Rb_tree_nodeIN3ue212_GLOBAL__N_111AliasInEdgeEEEE7destroyIS3_EEvRS5_PT_(ptr noundef nonnull align 1 dereferenceable(1) %6, ptr noundef %8) #24
  ret void
}

; Function Attrs: mustprogress nounwind uwtable
define internal void @_ZNSt8_Rb_treeIN3ue212_GLOBAL__N_111AliasInEdgeES2_St9_IdentityIS2_ESt4lessIS2_ESaIS2_EE12_M_drop_nodeEPSt13_Rb_tree_nodeIS2_E(ptr noundef nonnull align 8 dereferenceable(48) %0, ptr noundef %1) #1 align 2 {
  %3 = alloca ptr, align 8
  %4 = alloca ptr, align 8
  store ptr %0, ptr %3, align 8
  store ptr %1, ptr %4, align 8
  %5 = load ptr, ptr %3, align 8
  %6 = load ptr, ptr %4, align 8
  call void @_ZNSt8_Rb_treeIN3ue212_GLOBAL__N_111AliasInEdgeES2_St9_IdentityIS2_ESt4lessIS2_ESaIS2_EE15_M_destroy_nodeEPSt13_Rb_tree_nodeIS2_E(ptr noundef nonnull align 8 dereferenceable(48) %5, ptr noundef %6) #24
  %7 = load ptr, ptr %4, align 8
  call void @_ZNSt8_Rb_treeIN3ue212_GLOBAL__N_111AliasInEdgeES2_St9_IdentityIS2_ESt4lessIS2_ESaIS2_EE11_M_put_nodeEPSt13_Rb_tree_nodeIS2_E(ptr noundef nonnull align 8 dereferenceable(48) %5, ptr noundef %7) #24
  ret void
}

; Function Attrs: mustprogress nounwind uwtable
define internal noundef ptr @_ZNSt8_Rb_treeIN3ue212_GLOBAL__N_111AliasInEdgeES2_St9_IdentityIS2_ESt4lessIS2_ESaIS2_EE7_S_leftEPSt18_Rb_tree_node_base(ptr noundef %0) #1 align 2 {
  %2 = alloca ptr, align 8
  store ptr %0, ptr %2, align 8
  %3 = load ptr, ptr %2, align 8
  %4 = getelementptr inbounds nuw %"struct.std::_Rb_tree_node_base", ptr %3, i32 0, i32 2
  %5 = load ptr, ptr %4, align 8
  ret ptr %5
}

; Function Attrs: mustprogress nounwind uwtable
define internal noundef ptr @_ZNSt8_Rb_treeIN3ue212_GLOBAL__N_111AliasInEdgeES2_St9_IdentityIS2_ESt4lessIS2_ESaIS2_EE8_S_rightEPSt18_Rb_tree_node_base(ptr noundef %0) #1 align 2 {
  %2 = alloca ptr, align 8
  store ptr %0, ptr %2, align 8
  %3 = load ptr, ptr %2, align 8
  %4 = getelementptr inbounds nuw %"struct.std::_Rb_tree_node_base", ptr %3, i32 0, i32 3
  %5 = load ptr, ptr %4, align 8
  ret ptr %5
}

; Function Attrs: mustprogress uwtable
define internal void @_ZNSt8_Rb_treeIN3ue212_GLOBAL__N_111AliasInEdgeES2_St9_IdentityIS2_ESt4lessIS2_ESaIS2_EE8_M_eraseEPSt13_Rb_tree_nodeIS2_E(ptr noundef nonnull align 8 dereferenceable(48) %0, ptr noundef %1) #3 align 2 {
  %3 = alloca ptr, align 8
  %4 = alloca ptr, align 8
  %5 = alloca ptr, align 8
  store ptr %0, ptr %3, align 8
  store ptr %1, ptr %4, align 8
  %6 = load ptr, ptr %3, align 8
  br label %7

7:                                                ; preds = %10, %2
  %8 = load ptr, ptr %4, align 8
  %9 = icmp ne ptr %8, null
  br i1 %9, label %10, label %17

10:                                               ; preds = %7
  %11 = load ptr, ptr %4, align 8
  %12 = call noundef ptr @_ZNSt8_Rb_treeIN3ue212_GLOBAL__N_111AliasInEdgeES2_St9_IdentityIS2_ESt4lessIS2_ESaIS2_EE8_S_rightEPSt18_Rb_tree_node_base(ptr noundef %11) #24
  call void @_ZNSt8_Rb_treeIN3ue212_GLOBAL__N_111AliasInEdgeES2_St9_IdentityIS2_ESt4lessIS2_ESaIS2_EE8_M_eraseEPSt13_Rb_tree_nodeIS2_E(ptr noundef nonnull align 8 dereferenceable(48) %6, ptr noundef %12)
  call void @llvm.lifetime.start.p0(i64 8, ptr %5) #24
  %13 = load ptr, ptr %4, align 8
  %14 = call noundef ptr @_ZNSt8_Rb_treeIN3ue212_GLOBAL__N_111AliasInEdgeES2_St9_IdentityIS2_ESt4lessIS2_ESaIS2_EE7_S_leftEPSt18_Rb_tree_node_base(ptr noundef %13) #24
  store ptr %14, ptr %5, align 8
  %15 = load ptr, ptr %4, align 8
  call void @_ZNSt8_Rb_treeIN3ue212_GLOBAL__N_111AliasInEdgeES2_St9_IdentityIS2_ESt4lessIS2_ESaIS2_EE12_M_drop_nodeEPSt13_Rb_tree_nodeIS2_E(ptr noundef nonnull align 8 dereferenceable(48) %6, ptr noundef %15) #24
  %16 = load ptr, ptr %5, align 8
  store ptr %16, ptr %4, align 8
  call void @llvm.lifetime.end.p0(i64 8, ptr %5) #24
  br label %7, !llvm.loop !45

17:                                               ; preds = %7
  ret void
}